; Listing generated by Microsoft (R) Optimizing Compiler Version 16.00.40219.01 

	TITLE	c:\odzhan\belt\belt.c
	.686P
	.XMM
	include listing.inc
	.model	flat

INCLUDELIB LIBCMT
INCLUDELIB OLDNAMES

PUBLIC	_H
CONST	SEGMENT
_H	DB	0b1H
	DB	094H
	DB	0baH
	DB	0c8H
	DB	0aH
	DB	08H
	DB	0f5H
	DB	03bH
	DB	036H
	DB	06dH
	DB	00H
	DB	08eH
	DB	058H
	DB	04aH
	DB	05dH
	DB	0e4H
	DB	085H
	DB	04H
	DB	0faH
	DB	09dH
	DB	01bH
	DB	0b6H
	DB	0c7H
	DB	0acH
	DB	025H
	DB	02eH
	DB	072H
	DB	0c2H
	DB	02H
	DB	0fdH
	DB	0ceH
	DB	0dH
	DB	05bH
	DB	0e3H
	DB	0d6H
	DB	012H
	DB	017H
	DB	0b9H
	DB	061H
	DB	081H
	DB	0feH
	DB	067H
	DB	086H
	DB	0adH
	DB	071H
	DB	06bH
	DB	089H
	DB	0bH
	DB	05cH
	DB	0b0H
	DB	0c0H
	DB	0ffH
	DB	033H
	DB	0c3H
	DB	056H
	DB	0b8H
	DB	035H
	DB	0c4H
	DB	05H
	DB	0aeH
	DB	0d8H
	DB	0e0H
	DB	07fH
	DB	099H
	DB	0e1H
	DB	02bH
	DB	0dcH
	DB	01aH
	DB	0e2H
	DB	082H
	DB	057H
	DB	0ecH
	DB	070H
	DB	03fH
	DB	0ccH
	DB	0f0H
	DB	095H
	DB	0eeH
	DB	08dH
	DB	0f1H
	DB	0c1H
	DB	0abH
	DB	076H
	DB	038H
	DB	09fH
	DB	0e6H
	DB	078H
	DB	0caH
	DB	0f7H
	DB	0c6H
	DB	0f8H
	DB	060H
	DB	0d5H
	DB	0bbH
	DB	09cH
	DB	04fH
	DB	0f3H
	DB	03cH
	DB	065H
	DB	07bH
	DB	063H
	DB	07cH
	DB	030H
	DB	06aH
	DB	0ddH
	DB	04eH
	DB	0a7H
	DB	079H
	DB	09eH
	DB	0b2H
	DB	03dH
	DB	031H
	DB	03eH
	DB	098H
	DB	0b5H
	DB	06eH
	DB	027H
	DB	0d3H
	DB	0bcH
	DB	0cfH
	DB	059H
	DB	01eH
	DB	018H
	DB	01fH
	DB	04cH
	DB	05aH
	DB	0b7H
	DB	093H
	DB	0e9H
	DB	0deH
	DB	0e7H
	DB	02cH
	DB	08fH
	DB	0cH
	DB	0fH
	DB	0a6H
	DB	02dH
	DB	0dbH
	DB	049H
	DB	0f4H
	DB	06fH
	DB	073H
	DB	096H
	DB	047H
	DB	06H
	DB	07H
	DB	053H
	DB	016H
	DB	0edH
	DB	024H
	DB	07aH
	DB	037H
	DB	039H
	DB	0cbH
	DB	0a3H
	DB	083H
	DB	03H
	DB	0a9H
	DB	08bH
	DB	0f6H
	DB	092H
	DB	0bdH
	DB	09bH
	DB	01cH
	DB	0e5H
	DB	0d1H
	DB	041H
	DB	01H
	DB	054H
	DB	045H
	DB	0fbH
	DB	0c9H
	DB	05eH
	DB	04dH
	DB	0eH
	DB	0f2H
	DB	068H
	DB	020H
	DB	080H
	DB	0aaH
	DB	022H
	DB	07dH
	DB	064H
	DB	02fH
	DB	026H
	DB	087H
	DB	0f9H
	DB	034H
	DB	090H
	DB	040H
	DB	055H
	DB	011H
	DB	0beH
	DB	032H
	DB	097H
	DB	013H
	DB	043H
	DB	0fcH
	DB	09aH
	DB	048H
	DB	0a0H
	DB	02aH
	DB	088H
	DB	05fH
	DB	019H
	DB	04bH
	DB	09H
	DB	0a1H
	DB	07eH
	DB	0cdH
	DB	0a4H
	DB	0d0H
	DB	015H
	DB	044H
	DB	0afH
	DB	08cH
	DB	0a5H
	DB	084H
	DB	050H
	DB	0bfH
	DB	066H
	DB	0d2H
	DB	0e8H
	DB	08aH
	DB	0a2H
	DB	0d7H
	DB	046H
	DB	052H
	DB	042H
	DB	0a8H
	DB	0dfH
	DB	0b3H
	DB	069H
	DB	074H
	DB	0c5H
	DB	051H
	DB	0ebH
	DB	023H
	DB	029H
	DB	021H
	DB	0d4H
	DB	0efH
	DB	0d9H
	DB	0b4H
	DB	03aH
	DB	062H
	DB	028H
	DB	075H
	DB	091H
	DB	014H
	DB	010H
	DB	0eaH
	DB	077H
	DB	06cH
	DB	0daH
	DB	01dH
CONST	ENDS
PUBLIC	_G
; Function compile flags: /Ogspy
;	COMDAT _G
_TEXT	SEGMENT
_x$ = 8							; size = 4
_key$ = 12						; size = 4
_u$ = 16						; size = 4
_idx$ = 16						; size = 4
_r$ = 20						; size = 4
_G	PROC						; COMDAT
; File c:\odzhan\belt\belt.c
; Line 68
	push	ebp
	mov	ebp, esp
; Line 72
	mov	eax, DWORD PTR _idx$[ebp]
	mov	ecx, DWORD PTR _key$[ebp]
	and	eax, 7
	mov	eax, DWORD PTR [ecx+eax*4]
	add	eax, DWORD PTR _x$[ebp]
; Line 74
	xor	ecx, ecx
	mov	DWORD PTR _u$[ebp], eax
$LL3@G:
; Line 75
	lea	eax, DWORD PTR _u$[ebp+ecx]
	movzx	edx, BYTE PTR [eax]
	mov	dl, BYTE PTR _H[edx]
	inc	ecx
	mov	BYTE PTR [eax], dl
	cmp	ecx, 4
	jl	SHORT $LL3@G
; Line 77
	mov	eax, DWORD PTR _u$[ebp]
	mov	ecx, DWORD PTR _r$[ebp]
	rol	eax, cl
; Line 79
	pop	ebp
	ret	0
_G	ENDP
_TEXT	ENDS
PUBLIC	_belt_encrypt
; Function compile flags: /Ogspy
;	COMDAT _belt_encrypt
_TEXT	SEGMENT
_key$ = -64						; size = 32
_v$ = -32						; size = 32
_blk$ = 8						; size = 4
tv266 = 12						; size = 4
_i$ = 12						; size = 4
_ks$ = 12						; size = 4
_enc$ = 16						; size = 4
_belt_encrypt PROC					; COMDAT
; Line 83
	push	ebp
	mov	ebp, esp
	sub	esp, 64					; 00000040H
; Line 93
	cmp	DWORD PTR _enc$[ebp], 1
	push	ebx
	push	esi
	mov	esi, DWORD PTR _ks$[ebp]
	push	edi
	push	8
	pop	ecx
	lea	edi, DWORD PTR _key$[ebp]
	rep movsd
	jne	SHORT $LN17@belt_encry
; Line 94
	xor	esi, esi
	lea	ecx, DWORD PTR _key$[ebp+28]
$LL9@belt_encry:
; Line 95
	mov	edi, DWORD PTR [ecx]
	lea	eax, DWORD PTR _key$[ebp+esi*4]
	mov	edx, DWORD PTR [eax]
	mov	DWORD PTR [eax], edi
	mov	DWORD PTR [ecx], edx
	inc	esi
	sub	ecx, 4
	cmp	esi, 4
	jb	SHORT $LL9@belt_encry
$LN17@belt_encry:
; Line 100
	mov	esi, DWORD PTR _blk$[ebp]
; Line 103
	and	DWORD PTR _i$[ebp], 0
	lea	edi, DWORD PTR _v$[ebp]
	movsd
	movsd
	movsd
	movsd
	mov	edi, DWORD PTR _v$[ebp+8]
	mov	ebx, DWORD PTR _v$[ebp+4]
	push	2
	pop	esi
$LL6@belt_encry:
; Line 105
	push	5
	lea	eax, DWORD PTR [esi-2]
	push	eax
	lea	eax, DWORD PTR _key$[ebp]
	push	eax
	push	DWORD PTR _v$[ebp]
	call	_G
	xor	ebx, eax
; Line 106
	push	21					; 00000015H
	lea	eax, DWORD PTR [esi-1]
	push	eax
	lea	eax, DWORD PTR _key$[ebp]
	push	eax
	push	DWORD PTR _v$[ebp+12]
	call	_G
; Line 107
	push	13					; 0000000dH
	xor	edi, eax
	push	esi
	lea	eax, DWORD PTR _key$[ebp]
	push	eax
	push	ebx
	call	_G
	sub	DWORD PTR _v$[ebp], eax
; Line 108
	push	21					; 00000015H
	lea	eax, DWORD PTR [esi+1]
	push	eax
	lea	eax, DWORD PTR _key$[ebp]
	push	eax
	lea	eax, DWORD PTR [edi+ebx]
	push	eax
	call	_G
; Line 109
	mov	edx, DWORD PTR _i$[ebp]
	add	esp, 64					; 00000040H
; Line 111
	cmp	DWORD PTR _enc$[ebp], 0
	lea	ecx, DWORD PTR [edx+1]
	mov	DWORD PTR tv266[ebp], ecx
	je	SHORT $b_l3$1340
; Line 114
	push	8
	pop	ecx
	sub	ecx, edx
$b_l3$1340:
; Line 116
	xor	eax, ecx
; Line 118
	sub	edi, eax
	add	ebx, eax
; Line 119
	push	13					; 0000000dH
	lea	eax, DWORD PTR [esi+2]
	push	eax
	lea	eax, DWORD PTR _key$[ebp]
	push	eax
	push	edi
	call	_G
	add	DWORD PTR _v$[ebp+12], eax
; Line 120
	push	21					; 00000015H
	lea	eax, DWORD PTR [esi+3]
	push	eax
	lea	eax, DWORD PTR _key$[ebp]
	push	eax
	push	DWORD PTR _v$[ebp]
	call	_G
	xor	ebx, eax
; Line 121
	push	5
	lea	eax, DWORD PTR [esi+4]
	push	eax
	lea	eax, DWORD PTR _key$[ebp]
	push	eax
	push	DWORD PTR _v$[ebp+12]
	call	_G
	xor	edi, eax
; Line 123
	mov	eax, DWORD PTR _v$[ebp]
; Line 124
	mov	ecx, edi
	add	esp, 48					; 00000030H
; Line 127
	cmp	DWORD PTR _enc$[ebp], 0
	mov	DWORD PTR _v$[ebp], ebx
	mov	ebx, DWORD PTR _v$[ebp+12]
	mov	DWORD PTR _v$[ebp+12], ecx
	mov	edi, eax
	je	SHORT $LN5@belt_encry
; Line 131
	mov	eax, ebx
	mov	ebx, edi
	mov	edi, eax
; Line 132
	mov	eax, DWORD PTR _v$[ebp]
	mov	DWORD PTR _v$[ebp], ecx
	mov	DWORD PTR _v$[ebp+12], eax
$LN5@belt_encry:
; Line 103
	mov	eax, DWORD PTR tv266[ebp]
	add	esi, 7
	mov	DWORD PTR _i$[ebp], eax
	cmp	eax, 8
	jb	$LL6@belt_encry
; Line 139
	cmp	DWORD PTR _enc$[ebp], 0
	mov	eax, DWORD PTR _blk$[ebp]
	mov	edx, DWORD PTR _v$[ebp+12]
	mov	ecx, DWORD PTR _v$[ebp]
	mov	DWORD PTR [eax], ebx
	mov	DWORD PTR [eax+4], edx
	mov	DWORD PTR [eax+8], ecx
	mov	DWORD PTR [eax+12], edi
	je	SHORT $LN11@belt_encry
; Line 143
	mov	DWORD PTR [eax], edi
	mov	DWORD PTR [eax+4], ecx
; Line 144
	mov	DWORD PTR [eax+8], edx
	mov	DWORD PTR [eax+12], ebx
$LN11@belt_encry:
	pop	edi
	pop	esi
	pop	ebx
; Line 145
	leave
	ret	0
_belt_encrypt ENDP
_TEXT	ENDS
END
