; Listing generated by Microsoft (R) Optimizing Compiler Version 16.00.40219.01 

	TITLE	c:\odzhan\tinycrypt\block\belt\ref\b2.c
	.686P
	.XMM
	include listing.inc
	.model	flat

INCLUDELIB LIBCMT
INCLUDELIB OLDNAMES

PUBLIC	_sbox
CONST	SEGMENT
_sbox	DB	0b1H
	DB	094H
	DB	0baH
	DB	0c8H
	DB	0aH
	DB	08H
	DB	0f5H
	DB	03bH
	DB	036H
	DB	06dH
	DB	00H
	DB	08eH
	DB	058H
	DB	04aH
	DB	05dH
	DB	0e4H
	DB	085H
	DB	04H
	DB	0faH
	DB	09dH
	DB	01bH
	DB	0b6H
	DB	0c7H
	DB	0acH
	DB	025H
	DB	02eH
	DB	072H
	DB	0c2H
	DB	02H
	DB	0fdH
	DB	0ceH
	DB	0dH
	DB	05bH
	DB	0e3H
	DB	0d6H
	DB	012H
	DB	017H
	DB	0b9H
	DB	061H
	DB	081H
	DB	0feH
	DB	067H
	DB	086H
	DB	0adH
	DB	071H
	DB	06bH
	DB	089H
	DB	0bH
	DB	05cH
	DB	0b0H
	DB	0c0H
	DB	0ffH
	DB	033H
	DB	0c3H
	DB	056H
	DB	0b8H
	DB	035H
	DB	0c4H
	DB	05H
	DB	0aeH
	DB	0d8H
	DB	0e0H
	DB	07fH
	DB	099H
	DB	0e1H
	DB	02bH
	DB	0dcH
	DB	01aH
	DB	0e2H
	DB	082H
	DB	057H
	DB	0ecH
	DB	070H
	DB	03fH
	DB	0ccH
	DB	0f0H
	DB	095H
	DB	0eeH
	DB	08dH
	DB	0f1H
	DB	0c1H
	DB	0abH
	DB	076H
	DB	038H
	DB	09fH
	DB	0e6H
	DB	078H
	DB	0caH
	DB	0f7H
	DB	0c6H
	DB	0f8H
	DB	060H
	DB	0d5H
	DB	0bbH
	DB	09cH
	DB	04fH
	DB	0f3H
	DB	03cH
	DB	065H
	DB	07bH
	DB	063H
	DB	07cH
	DB	030H
	DB	06aH
	DB	0ddH
	DB	04eH
	DB	0a7H
	DB	079H
	DB	09eH
	DB	0b2H
	DB	03dH
	DB	031H
	DB	03eH
	DB	098H
	DB	0b5H
	DB	06eH
	DB	027H
	DB	0d3H
	DB	0bcH
	DB	0cfH
	DB	059H
	DB	01eH
	DB	018H
	DB	01fH
	DB	04cH
	DB	05aH
	DB	0b7H
	DB	093H
	DB	0e9H
	DB	0deH
	DB	0e7H
	DB	02cH
	DB	08fH
	DB	0cH
	DB	0fH
	DB	0a6H
	DB	02dH
	DB	0dbH
	DB	049H
	DB	0f4H
	DB	06fH
	DB	073H
	DB	096H
	DB	047H
	DB	06H
	DB	07H
	DB	053H
	DB	016H
	DB	0edH
	DB	024H
	DB	07aH
	DB	037H
	DB	039H
	DB	0cbH
	DB	0a3H
	DB	083H
	DB	03H
	DB	0a9H
	DB	08bH
	DB	0f6H
	DB	092H
	DB	0bdH
	DB	09bH
	DB	01cH
	DB	0e5H
	DB	0d1H
	DB	041H
	DB	01H
	DB	054H
	DB	045H
	DB	0fbH
	DB	0c9H
	DB	05eH
	DB	04dH
	DB	0eH
	DB	0f2H
	DB	068H
	DB	020H
	DB	080H
	DB	0aaH
	DB	022H
	DB	07dH
	DB	064H
	DB	02fH
	DB	026H
	DB	087H
	DB	0f9H
	DB	034H
	DB	090H
	DB	040H
	DB	055H
	DB	011H
	DB	0beH
	DB	032H
	DB	097H
	DB	013H
	DB	043H
	DB	0fcH
	DB	09aH
	DB	048H
	DB	0a0H
	DB	02aH
	DB	088H
	DB	05fH
	DB	019H
	DB	04bH
	DB	09H
	DB	0a1H
	DB	07eH
	DB	0cdH
	DB	0a4H
	DB	0d0H
	DB	015H
	DB	044H
	DB	0afH
	DB	08cH
	DB	0a5H
	DB	084H
	DB	050H
	DB	0bfH
	DB	066H
	DB	0d2H
	DB	0e8H
	DB	08aH
	DB	0a2H
	DB	0d7H
	DB	046H
	DB	052H
	DB	042H
	DB	0a8H
	DB	0dfH
	DB	0b3H
	DB	069H
	DB	074H
	DB	0c5H
	DB	051H
	DB	0ebH
	DB	023H
	DB	029H
	DB	021H
	DB	0d4H
	DB	0efH
	DB	0d9H
	DB	0b4H
	DB	03aH
	DB	062H
	DB	028H
	DB	075H
	DB	091H
	DB	014H
	DB	010H
	DB	0eaH
	DB	077H
	DB	06cH
	DB	0daH
	DB	01dH
CONST	ENDS
PUBLIC	_F
; Function compile flags: /Ogspy
;	COMDAT _F
_TEXT	SEGMENT
_w$ = 8							; size = 4
_key$ = 12						; size = 4
_idx$ = 16						; size = 4
_r$ = 20						; size = 4
_F	PROC						; COMDAT
; File c:\odzhan\tinycrypt\block\belt\ref\b2.c
; Line 75
	mov	ecx, DWORD PTR _idx$[esp-4]
	mov	edx, DWORD PTR _key$[esp-4]
	and	ecx, 7
	mov	ecx, DWORD PTR [edx+ecx*4]
	push	4
	pop	edx
	xor	eax, eax
	add	ecx, DWORD PTR _w$[esp-4]
	push	esi
$LL3@F:
; Line 79
	mov	esi, ecx
	and	esi, 255				; 000000ffH
; Line 80
	movzx	esi, BYTE PTR _sbox[esi]
	or	eax, esi
	dec	edx
	ror	eax, 8
; Line 81
	ror	ecx, 8
	jne	SHORT $LL3@F
; Line 84
	mov	ecx, DWORD PTR _r$[esp]
	rol	eax, cl
	pop	esi
; Line 85
	ret	0
_F	ENDP
_TEXT	ENDS
PUBLIC	_belt_encryptx
; Function compile flags: /Ogspy
;	COMDAT _belt_encryptx
_TEXT	SEGMENT
_key$ = -48						; size = 32
_t$ = -16						; size = 4
_e$ = -12						; size = 4
_c$ = -12						; size = 4
_i$ = -8						; size = 4
_d$ = -4						; size = 4
_out$ = 8						; size = 4
_a$ = 12						; size = 4
_in$ = 12						; size = 4
_ks$ = 16						; size = 4
_enc$ = 20						; size = 4
_belt_encryptx PROC					; COMDAT
; Line 89
	push	ebp
	mov	ebp, esp
	sub	esp, 48					; 00000030H
; Line 90
	mov	eax, DWORD PTR _in$[ebp]
	mov	ecx, DWORD PTR [eax]
	push	ebx
; Line 91
	mov	ebx, DWORD PTR [eax+4]
	push	esi
; Line 101
	mov	esi, DWORD PTR _ks$[ebp]
	push	edi
	mov	DWORD PTR _a$[ebp], ecx
	mov	ecx, DWORD PTR [eax+8]
	mov	eax, DWORD PTR [eax+12]
	mov	DWORD PTR _c$[ebp], ecx
	push	8
	pop	ecx
	lea	edi, DWORD PTR _key$[ebp]
	rep movsd
; Line 105
	xor	esi, esi
	mov	DWORD PTR _d$[ebp], eax
	cmp	DWORD PTR _enc$[ebp], esi
	jne	SHORT $LN10@belt_encry
; Line 106
	lea	ecx, DWORD PTR _key$[ebp+28]
$LL12@belt_encry:
; Line 108
	mov	edi, DWORD PTR [ecx]
	lea	eax, DWORD PTR _key$[ebp+esi*4]
	mov	edx, DWORD PTR [eax]
	mov	DWORD PTR [eax], edi
; Line 109
	mov	DWORD PTR [ecx], edx
	inc	esi
	sub	ecx, 4
	cmp	esi, 4
	jb	SHORT $LL12@belt_encry
$LN10@belt_encry:
; Line 113
	and	DWORD PTR _i$[ebp], 0
	push	2
	pop	esi
$LL25@belt_encry:
; Line 115
	push	5
	lea	eax, DWORD PTR [esi-2]
	push	eax
	lea	eax, DWORD PTR _key$[ebp]
	push	eax
	push	DWORD PTR _a$[ebp]
	call	_F
	xor	ebx, eax
; Line 116
	push	21					; 00000015H
	lea	eax, DWORD PTR [esi-1]
	push	eax
	lea	eax, DWORD PTR _key$[ebp]
	push	eax
	push	DWORD PTR _d$[ebp]
	call	_F
	mov	edi, DWORD PTR _c$[ebp]
; Line 117
	push	13					; 0000000dH
	xor	edi, eax
	push	esi
	lea	eax, DWORD PTR _key$[ebp]
	push	eax
	push	ebx
	call	_F
	sub	DWORD PTR _a$[ebp], eax
; Line 118
	push	21					; 00000015H
	lea	eax, DWORD PTR [esi+1]
	push	eax
	lea	eax, DWORD PTR _key$[ebp]
	push	eax
	lea	eax, DWORD PTR [edi+ebx]
	push	eax
	call	_F
	add	esp, 64					; 00000040H
; Line 119
	cmp	DWORD PTR _enc$[ebp], 0
	mov	DWORD PTR _e$[ebp], eax
	jne	SHORT $LN6@belt_encry
; Line 120
	push	8
	pop	eax
	sub	eax, DWORD PTR _i$[ebp]
; Line 121
	jmp	SHORT $LN5@belt_encry
$LN6@belt_encry:
; Line 122
	mov	eax, DWORD PTR _i$[ebp]
	inc	eax
$LN5@belt_encry:
; Line 124
	xor	DWORD PTR _e$[ebp], eax
; Line 126
	sub	edi, DWORD PTR _e$[ebp]
; Line 127
	push	13					; 0000000dH
	lea	eax, DWORD PTR [esi+2]
	push	eax
	lea	eax, DWORD PTR _key$[ebp]
	push	eax
	push	edi
	call	_F
	add	DWORD PTR _d$[ebp], eax
; Line 131
	mov	eax, DWORD PTR _a$[ebp]
	push	21					; 00000015H
	lea	ecx, DWORD PTR [esi+3]
	push	ecx
	lea	ecx, DWORD PTR _key$[ebp]
	push	ecx
	push	eax
	mov	DWORD PTR _t$[ebp], eax
	call	_F
	mov	ecx, DWORD PTR _e$[ebp]
	add	ecx, ebx
	mov	ebx, DWORD PTR _t$[ebp]
	xor	eax, ecx
	mov	DWORD PTR _a$[ebp], eax
	push	5
	lea	eax, DWORD PTR [esi+4]
	push	eax
	lea	eax, DWORD PTR _key$[ebp]
	push	eax
	push	DWORD PTR _d$[ebp]
	call	_F
; Line 132
	mov	ecx, DWORD PTR _d$[ebp]
	xor	eax, edi
	add	esp, 48					; 00000030H
; Line 134
	cmp	DWORD PTR _enc$[ebp], 1
	mov	DWORD PTR _c$[ebp], ecx
	mov	DWORD PTR _d$[ebp], eax
	jne	SHORT $LN4@belt_encry
; Line 135
	mov	DWORD PTR _c$[ebp], ebx
	mov	ebx, ecx
; Line 136
	jmp	SHORT $LN8@belt_encry
$LN4@belt_encry:
; Line 137
	mov	ecx, DWORD PTR _a$[ebp]
	mov	DWORD PTR _a$[ebp], eax
	mov	DWORD PTR _d$[ebp], ecx
$LN8@belt_encry:
; Line 113
	inc	DWORD PTR _i$[ebp]
	add	esi, 7
	cmp	DWORD PTR _i$[ebp], 8
	jb	$LL25@belt_encry
; Line 140
	cmp	DWORD PTR _enc$[ebp], 1
; Line 141
	mov	eax, DWORD PTR _out$[ebp]
	jne	SHORT $LN2@belt_encry
; Line 142
	mov	ecx, DWORD PTR _d$[ebp]
	mov	DWORD PTR [eax+4], ecx
; Line 143
	mov	ecx, DWORD PTR _a$[ebp]
	mov	DWORD PTR [eax+8], ecx
; Line 144
	mov	ecx, DWORD PTR _c$[ebp]
	mov	DWORD PTR [eax], ebx
	mov	DWORD PTR [eax+12], ecx
; Line 145
	jmp	SHORT $LN1@belt_encry
$LN2@belt_encry:
; Line 146
	mov	ecx, DWORD PTR _c$[ebp]
	mov	DWORD PTR [eax], ecx
; Line 147
	mov	ecx, DWORD PTR _a$[ebp]
	mov	DWORD PTR [eax+4], ecx
; Line 148
	mov	ecx, DWORD PTR _d$[ebp]
	mov	DWORD PTR [eax+8], ecx
; Line 149
	mov	DWORD PTR [eax+12], ebx
$LN1@belt_encry:
	pop	edi
	pop	esi
	pop	ebx
; Line 151
	leave
	ret	0
_belt_encryptx ENDP
_TEXT	ENDS
END
